; Function Attrs: nounwind uwtable
define hidden void @Radius__switch_to_buffer(ptr noundef %0, ptr noundef captures(none) %1) local_unnamed_addr #0 {
  %3 = getelementptr inbounds nuw i8, ptr %1, i64 40
  %4 = load ptr, ptr %3, align 8
  %.not.i = icmp eq ptr %4, null
  br i1 %.not.i, label %5, label %11

5:                                                ; preds = %2
  %6 = tail call noalias dereferenceable_or_null(8) ptr @malloc(i64 noundef 8) #26
  store ptr %6, ptr %3, align 8
  %.not26.i = icmp eq ptr %6, null
  br i1 %.not26.i, label %7, label %8

7:                                                ; preds = %5
  tail call fastcc void @yy_fatal_error(ptr noundef nonnull @.str.25) #27
  unreachable

8:                                                ; preds = %5
  store i64 0, ptr %6, align 8
  %9 = getelementptr inbounds nuw i8, ptr %1, i64 32
  store i64 1, ptr %9, align 8
  %10 = getelementptr inbounds nuw i8, ptr %1, i64 24
  store i64 0, ptr %10, align 8
  br label %.thread

11:                                               ; preds = %2
  %12 = getelementptr inbounds nuw i8, ptr %1, i64 24
  %13 = load i64, ptr %12, align 8
  %14 = getelementptr inbounds nuw i8, ptr %1, i64 32
  %15 = load i64, ptr %14, align 8
  %16 = add i64 %15, -1
  %.not27.i = icmp ult i64 %13, %16
  br i1 %.not27.i, label %.thread, label %17

17:                                               ; preds = %11
  %18 = add i64 %15, 8
  %19 = shl i64 %18, 3
  %20 = tail call ptr @realloc(ptr noundef nonnull %4, i64 noundef %19) #28
  store ptr %20, ptr %3, align 8
  %.not28.i = icmp eq ptr %20, null
  br i1 %.not28.i, label %21, label %22

21:                                               ; preds = %17
  tail call fastcc void @yy_fatal_error(ptr noundef nonnull @.str.25) #27
  unreachable

22:                                               ; preds = %17
  %23 = load i64, ptr %14, align 8
  %24 = getelementptr ptr, ptr %20, i64 %23
  tail call void @llvm.memset.p0.i64(ptr noundef nonnull align 8 dereferenceable(64) %24, i8 0, i64 64, i1 false)
  store i64 %18, ptr %14, align 8
  br label %.thread

.thread:                                          ; preds = %22, %11, %8
  %25 = phi ptr [ %6, %8 ], [ %4, %11 ], [ %20, %22 ]
  %26 = getelementptr inbounds nuw i8, ptr %1, i64 24
  %27 = load i64, ptr %26, align 8
  %28 = getelementptr ptr, ptr %25, i64 %27
  %29 = load ptr, ptr %28, align 8
  %30 = icmp eq ptr %29, %0
  br i1 %30, label %73, label %31

31:                                               ; preds = %.thread
  %.not25 = icmp eq ptr %29, null
  br i1 %.not25, label %50, label %32

32:                                               ; preds = %31
  %33 = getelementptr inbounds nuw i8, ptr %1, i64 48
  %34 = load i8, ptr %33, align 8
  %35 = getelementptr inbounds nuw i8, ptr %1, i64 64
  %36 = load ptr, ptr %35, align 8
  store i8 %34, ptr %36, align 1
  %37 = load ptr, ptr %35, align 8
  %38 = load ptr, ptr %3, align 8
  %39 = load i64, ptr %26, align 8
  %40 = getelementptr ptr, ptr %38, i64 %39
  %41 = load ptr, ptr %40, align 8
  %42 = getelementptr inbounds nuw i8, ptr %41, i64 16
  store ptr %37, ptr %42, align 8
  %43 = getelementptr inbounds nuw i8, ptr %1, i64 52
  %44 = load i32, ptr %43, align 4
  %45 = load ptr, ptr %3, align 8
  %46 = load i64, ptr %26, align 8
  %47 = getelementptr ptr, ptr %45, i64 %46
  %48 = load ptr, ptr %47, align 8
  %49 = getelementptr inbounds nuw i8, ptr %48, i64 28
  store i32 %44, ptr %49, align 4
  %.pre = load ptr, ptr %3, align 8
  br label %50

50:                                               ; preds = %32, %31
  %51 = phi ptr [ %.pre, %32 ], [ %25, %31 ]
  %52 = getelementptr inbounds nuw i8, ptr %1, i64 24
  %53 = load i64, ptr %52, align 8
  %54 = getelementptr ptr, ptr %51, i64 %53
  store ptr %0, ptr %54, align 8
  %55 = load ptr, ptr %3, align 8
  %56 = load i64, ptr %52, align 8
  %57 = getelementptr ptr, ptr %55, i64 %56
  %58 = load ptr, ptr %57, align 8
  %59 = getelementptr inbounds nuw i8, ptr %58, i64 28
  %60 = load i32, ptr %59, align 4
  %61 = getelementptr inbounds nuw i8, ptr %1, i64 52
  store i32 %60, ptr %61, align 4
  %62 = load ptr, ptr %57, align 8
  %63 = getelementptr inbounds nuw i8, ptr %62, i64 16
  %64 = load ptr, ptr %63, align 8
  %65 = getelementptr inbounds nuw i8, ptr %1, i64 64
  store ptr %64, ptr %65, align 8
  %66 = getelementptr inbounds nuw i8, ptr %1, i64 128
  store ptr %64, ptr %66, align 8
  %67 = load ptr, ptr %57, align 8
  %68 = load ptr, ptr %67, align 8
  %69 = getelementptr inbounds nuw i8, ptr %1, i64 8
  store ptr %68, ptr %69, align 8
  %70 = load i8, ptr %64, align 1
  %71 = getelementptr inbounds nuw i8, ptr %1, i64 48
  store i8 %70, ptr %71, align 8
  %72 = getelementptr inbounds nuw i8, ptr %1, i64 80
  store i32 1, ptr %72, align 8
  br label %73

73:                                               ; preds = %.thread, %50
  ret void
}